; Function Attrs: nounwind uwtable
define ptr @l_List_head_x21___rarg___boxed(ptr noundef %0, ptr noundef %1) #0 {
  %3 = ptrtoint ptr %1 to i64
  %4 = and i64 %3, 1
  %.not.i9.i = icmp eq i64 %4, 0
  br i1 %.not.i9.i, label %8, label %5

5:                                                ; preds = %2
  %6 = lshr i64 %3, 1
  %7 = trunc i64 %6 to i32
  br label %lean_obj_tag.exit.i

8:                                                ; preds = %2
  %9 = getelementptr i8, ptr %1, i64 4
  %.val.i.i = load i32, ptr %9, align 4
  %10 = lshr i32 %.val.i.i, 24
  br label %lean_obj_tag.exit.i

lean_obj_tag.exit.i:                              ; preds = %8, %5
  %.0.i.i = phi i32 [ %7, %5 ], [ %10, %8 ]
  %11 = icmp eq i32 %.0.i.i, 0
  br i1 %11, label %12, label %15

12:                                               ; preds = %lean_obj_tag.exit.i
  %13 = load ptr, ptr @l_List_head_x21___rarg___closed__2, align 8, !tbaa !10
  %14 = tail call ptr @l_panic___rarg(ptr noundef %0, ptr noundef %13) #4
  br label %l_List_head_x21___rarg.exit

15:                                               ; preds = %lean_obj_tag.exit.i
  %16 = ptrtoint ptr %0 to i64
  %17 = and i64 %16, 1
  %.not.i4 = icmp eq i64 %17, 0
  br i1 %.not.i4, label %18, label %lean_dec.exit.i

18:                                               ; preds = %15
  %19 = load i32, ptr %0, align 4, !tbaa !4
  %20 = icmp sgt i32 %19, 1
  br i1 %20, label %21, label %23, !prof !9

21:                                               ; preds = %18
  %22 = add nsw i32 %19, -1
  store i32 %22, ptr %0, align 4, !tbaa !4
  br label %lean_dec.exit.i

23:                                               ; preds = %18
  %.not.i.i = icmp eq i32 %19, 0
  br i1 %.not.i.i, label %lean_dec.exit.i, label %24

24:                                               ; preds = %23
  tail call void @lean_dec_ref_cold(ptr noundef nonnull %0) #4
  br label %lean_dec.exit.i

lean_dec.exit.i:                                  ; preds = %24, %23, %21, %15
  %25 = getelementptr inbounds nuw i8, ptr %1, i64 8
  %26 = load ptr, ptr %25, align 8, !tbaa !10
  %27 = ptrtoint ptr %26 to i64
  %28 = and i64 %27, 1
  %.not12.i = icmp eq i64 %28, 0
  br i1 %.not12.i, label %29, label %l_List_head_x21___rarg.exit

29:                                               ; preds = %lean_dec.exit.i
  %.val.i10.i = load i32, ptr %26, align 4, !tbaa !4
  %30 = icmp sgt i32 %.val.i10.i, 0
  br i1 %30, label %31, label %33, !prof !9

31:                                               ; preds = %29
  %32 = add nuw i32 %.val.i10.i, 1
  store i32 %32, ptr %26, align 4, !tbaa !4
  br label %l_List_head_x21___rarg.exit

33:                                               ; preds = %29
  %.not.i11.i = icmp eq i32 %.val.i10.i, 0
  br i1 %.not.i11.i, label %l_List_head_x21___rarg.exit, label %34

34:                                               ; preds = %33
  tail call void @lean_inc_ref_cold(ptr noundef nonnull %26) #4
  br label %l_List_head_x21___rarg.exit

l_List_head_x21___rarg.exit:                      ; preds = %12, %lean_dec.exit.i, %31, %33, %34
  %.0.i = phi ptr [ %14, %12 ], [ %26, %34 ], [ %26, %33 ], [ %26, %31 ], [ %26, %lean_dec.exit.i ]
  br i1 %.not.i9.i, label %35, label %lean_dec.exit

35:                                               ; preds = %l_List_head_x21___rarg.exit
  %36 = load i32, ptr %1, align 4, !tbaa !4
  %37 = icmp sgt i32 %36, 1
  br i1 %37, label %38, label %40, !prof !9

38:                                               ; preds = %35
  %39 = add nsw i32 %36, -1
  store i32 %39, ptr %1, align 4, !tbaa !4
  br label %lean_dec.exit

40:                                               ; preds = %35
  %.not.i = icmp eq i32 %36, 0
  br i1 %.not.i, label %lean_dec.exit, label %41

41:                                               ; preds = %40
  tail call void @lean_dec_ref_cold(ptr noundef nonnull %1) #4
  br label %lean_dec.exit

lean_dec.exit:                                    ; preds = %41, %40, %38, %l_List_head_x21___rarg.exit
  ret ptr %.0.i
}